; Function Attrs: mustprogress uwtable
define void @_ZN3zmq6pull_t12xattach_pipeEPNS_6pipe_tEbb(ptr noundef nonnull align 8 dereferenceable(1880) %0, ptr noundef %1, i1 zeroext %2, i1 zeroext %3) unnamed_addr #0 align 2 {
  %.not = icmp eq ptr %1, null
  br i1 %.not, label %5, label %10, !prof !60

5:                                                ; preds = %4
  %6 = load ptr, ptr @stderr, align 8, !tbaa !61
  %7 = tail call i32 (ptr, ptr, ...) @fprintf(ptr noundef %6, ptr noundef nonnull @.str, ptr noundef nonnull @.str.1, ptr noundef nonnull @.str.2, i32 noundef 27) #10
  %8 = load ptr, ptr @stderr, align 8, !tbaa !61
  %9 = tail call i32 @fflush(ptr noundef %8)
  tail call void @_ZN3zmq9zmq_abortEPKc(ptr noundef nonnull @.str.1)
  br label %10

10:                                               ; preds = %4, %5
  %11 = getelementptr inbounds nuw i8, ptr %0, i64 1832
  tail call void @_ZN3zmq4fq_t6attachEPNS_6pipe_tE(ptr noundef nonnull align 8 dereferenceable(41) %11, ptr noundef %1)
  ret void
}